target datalayout = "e-m:e-p270:32:32-p271:32:32-p272:64:64-i64:64-i128:128-f80:128-n8:16:32:64-S128"
target triple = "x86_64-pc-linux-gnu"

%struct._address = type { i32, i32, ptr, ptr }
%struct._endpoint_item_t = type { ptr, %struct._address, i32, i32, i64, i64, i64, i64, i64, i64, i64, i64, i8, i8 }
%struct._et_dissector_info = type { ptr }

@.str.1 = private unnamed_addr constant [1 x i8] zeroinitializer, align 1
@.str.4 = private unnamed_addr constant [3 x i8] c"%d\00", align 1
@usb_address_type = internal global i32 -1, align 4
@.str.5 = private unnamed_addr constant [7 x i8] c"AT_USB\00", align 1
@.str.6 = private unnamed_addr constant [5 x i8] c"\22%s\22\00", align 1
@.str.8 = private unnamed_addr constant [5 x i8] c" && \00", align 1
@.str.9 = private unnamed_addr constant [3 x i8] c"==\00", align 1
@.str.10 = private unnamed_addr constant [15 x i8] c"%s==%s%s%s%s%s\00", align 1
@.str.11 = private unnamed_addr constant [8 x i8] c"INVALID\00", align 1

; Function Attrs: null_pointer_is_valid sspstrong uwtable
define internal ptr @endpoint_get_filter_name(ptr noundef %0, i32 noundef %1) #1 {
  %3 = alloca ptr, align 8
  %4 = alloca ptr, align 8
  %5 = alloca i32, align 4
  store ptr %0, ptr %4, align 8
  store i32 %1, ptr %5, align 4
  %6 = load ptr, ptr %4, align 8
  %7 = icmp eq ptr %6, null
  br i1 %7, label %20, label %8

8:                                                ; preds = %2
  %9 = load ptr, ptr %4, align 8
  %10 = getelementptr inbounds nuw %struct._endpoint_item_t, ptr %9, i32 0, i32 0
  %11 = load ptr, ptr %10, align 8
  %12 = icmp eq ptr %11, null
  br i1 %12, label %20, label %13

13:                                               ; preds = %8
  %14 = load ptr, ptr %4, align 8
  %15 = getelementptr inbounds nuw %struct._endpoint_item_t, ptr %14, i32 0, i32 0
  %16 = load ptr, ptr %15, align 8
  %17 = getelementptr inbounds nuw %struct._et_dissector_info, ptr %16, i32 0, i32 0
  %18 = load ptr, ptr %17, align 8
  %19 = icmp eq ptr %18, null
  br i1 %19, label %20, label %21

20:                                               ; preds = %13, %8, %2
  store ptr @.str.11, ptr %3, align 8
  br label %30

21:                                               ; preds = %13
  %22 = load ptr, ptr %4, align 8
  %23 = getelementptr inbounds nuw %struct._endpoint_item_t, ptr %22, i32 0, i32 0
  %24 = load ptr, ptr %23, align 8
  %25 = getelementptr inbounds nuw %struct._et_dissector_info, ptr %24, i32 0, i32 0
  %26 = load ptr, ptr %25, align 8
  %27 = load ptr, ptr %4, align 8
  %28 = load i32, ptr %5, align 4
  %29 = call ptr %26(ptr noundef %27, i32 noundef %28)
  store ptr %29, ptr %3, align 8
  br label %30

30:                                               ; preds = %21, %20
  %31 = load ptr, ptr %3, align 8
  ret ptr %31
}

; Function Attrs: null_pointer_is_valid sspstrong uwtable
define ptr @get_endpoint_filter(ptr noundef %0) #1 {
  %2 = alloca ptr, align 8
  %3 = alloca ptr, align 8
  %4 = alloca ptr, align 8
  %5 = alloca ptr, align 8
  %6 = alloca ptr, align 8
  store ptr %0, ptr %2, align 8
  call void @llvm.lifetime.start.p0(i64 8, ptr %3) #16
  call void @llvm.lifetime.start.p0(i64 8, ptr %4) #16
  call void @llvm.lifetime.start.p0(i64 8, ptr %5) #16
  %7 = load i32, ptr @usb_address_type, align 4
  %8 = icmp eq i32 %7, -1
  br i1 %8, label %9, label %11

9:                                                ; preds = %1
  %10 = call i32 @address_type_get_by_name(ptr noundef @.str.5)
  store i32 %10, ptr @usb_address_type, align 4
  br label %11

11:                                               ; preds = %9, %1
  %12 = load ptr, ptr %2, align 8
  %13 = getelementptr inbounds nuw %struct._endpoint_item_t, ptr %12, i32 0, i32 2
  %14 = load i32, ptr %13, align 8
  switch i32 %14, label %20 [
    i32 2, label %15
    i32 3, label %15
    i32 1, label %15
    i32 6, label %15
  ]

15:                                               ; preds = %11, %11, %11, %11
  %16 = load ptr, ptr %2, align 8
  %17 = getelementptr inbounds nuw %struct._endpoint_item_t, ptr %16, i32 0, i32 3
  %18 = load i32, ptr %17, align 4
  %19 = call noalias ptr (ptr, ptr, ...) @wmem_strdup_printf(ptr noundef null, ptr noundef @.str.4, i32 noundef %18)
  store ptr %19, ptr %3, align 8
  br label %21

20:                                               ; preds = %11
  store ptr null, ptr %3, align 8
  br label %21

21:                                               ; preds = %20, %15
  %22 = load ptr, ptr %2, align 8
  %23 = getelementptr inbounds nuw %struct._endpoint_item_t, ptr %22, i32 0, i32 1
  %24 = call ptr @address_to_str(ptr noundef null, ptr noundef %23)
  store ptr %24, ptr %4, align 8
  %25 = load ptr, ptr %2, align 8
  %26 = getelementptr inbounds nuw %struct._endpoint_item_t, ptr %25, i32 0, i32 1
  %27 = getelementptr inbounds nuw %struct._address, ptr %26, i32 0, i32 0
  %28 = load i32, ptr %27, align 8
  %29 = icmp eq i32 %28, 7
  br i1 %29, label %37, label %30

30:                                               ; preds = %21
  %31 = load ptr, ptr %2, align 8
  %32 = getelementptr inbounds nuw %struct._endpoint_item_t, ptr %31, i32 0, i32 1
  %33 = getelementptr inbounds nuw %struct._address, ptr %32, i32 0, i32 0
  %34 = load i32, ptr %33, align 8
  %35 = load i32, ptr @usb_address_type, align 4
  %36 = icmp eq i32 %34, %35
  br i1 %36, label %37, label %42

37:                                               ; preds = %30, %21
  call void @llvm.lifetime.start.p0(i64 8, ptr %6) #16
  %38 = load ptr, ptr %4, align 8
  %39 = call noalias ptr (ptr, ptr, ...) @wmem_strdup_printf(ptr noundef null, ptr noundef @.str.6, ptr noundef %38)
  store ptr %39, ptr %6, align 8
  %40 = load ptr, ptr %4, align 8
  call void @wmem_free(ptr noundef null, ptr noundef %40)
  %41 = load ptr, ptr %6, align 8
  store ptr %41, ptr %4, align 8
  call void @llvm.lifetime.end.p0(i64 8, ptr %6) #16
  br label %42

42:                                               ; preds = %37, %30
  %43 = load ptr, ptr %2, align 8
  %44 = call ptr @endpoint_get_filter_name(ptr noundef %43, i32 noundef 2)
  %45 = load ptr, ptr %4, align 8
  %46 = load ptr, ptr %3, align 8
  %47 = icmp ne ptr %46, null
  %48 = select i1 %47, ptr @.str.8, ptr @.str.1
  %49 = load ptr, ptr %3, align 8
  %50 = icmp ne ptr %49, null
  br i1 %50, label %51, label %54

51:                                               ; preds = %42
  %52 = load ptr, ptr %2, align 8
  %53 = call ptr @endpoint_get_filter_name(ptr noundef %52, i32 noundef 5)
  br label %55

54:                                               ; preds = %42
  br label %55

55:                                               ; preds = %54, %51
  %56 = phi ptr [ %53, %51 ], [ @.str.1, %54 ]
  %57 = load ptr, ptr %3, align 8
  %58 = icmp ne ptr %57, null
  %59 = select i1 %58, ptr @.str.9, ptr @.str.1
  %60 = load ptr, ptr %3, align 8
  %61 = icmp ne ptr %60, null
  br i1 %61, label %62, label %64

62:                                               ; preds = %55
  %63 = load ptr, ptr %3, align 8
  br label %65

64:                                               ; preds = %55
  br label %65

65:                                               ; preds = %64, %62
  %66 = phi ptr [ %63, %62 ], [ @.str.1, %64 ]
  %67 = call noalias ptr (ptr, ptr, ...) @wmem_strdup_printf(ptr noundef null, ptr noundef @.str.10, ptr noundef %44, ptr noundef %45, ptr noundef %48, ptr noundef %56, ptr noundef %59, ptr noundef %66)
  store ptr %67, ptr %5, align 8
  %68 = load ptr, ptr %3, align 8
  call void @g_free(ptr noundef %68)
  %69 = load ptr, ptr %4, align 8
  call void @wmem_free(ptr noundef null, ptr noundef %69)
  %70 = load ptr, ptr %5, align 8
  call void @llvm.lifetime.end.p0(i64 8, ptr %5) #16
  call void @llvm.lifetime.end.p0(i64 8, ptr %4) #16
  call void @llvm.lifetime.end.p0(i64 8, ptr %3) #16
  ret ptr %70
}