; Function Attrs: null_pointer_is_valid sspstrong uwtable
define ptr @get_endpoint_filter(ptr noundef %0) local_unnamed_addr #1 {
  %2 = load i32, ptr @usb_address_type, align 4
  %3 = icmp eq i32 %2, -1
  br i1 %3, label %4, label %6

4:                                                ; preds = %1
  %5 = tail call i32 @address_type_get_by_name(ptr noundef nonnull @.str.5)
  store i32 %5, ptr @usb_address_type, align 4
  br label %6

6:                                                ; preds = %4, %1
  %7 = getelementptr inbounds nuw i8, ptr %0, i64 32
  %8 = load i32, ptr %7, align 8
  switch i32 %8, label %13 [
    i32 2, label %9
    i32 3, label %9
    i32 1, label %9
    i32 6, label %9
  ]

9:                                                ; preds = %6, %6, %6, %6
  %10 = getelementptr inbounds nuw i8, ptr %0, i64 36
  %11 = load i32, ptr %10, align 4
  %12 = tail call noalias ptr (ptr, ptr, ...) @wmem_strdup_printf(ptr noundef null, ptr noundef nonnull @.str.4, i32 noundef %11)
  br label %13

13:                                               ; preds = %6, %9
  %.0 = phi ptr [ %12, %9 ], [ null, %6 ]
  %14 = getelementptr inbounds nuw i8, ptr %0, i64 8
  %15 = tail call ptr @address_to_str(ptr noundef null, ptr noundef nonnull %14)
  %16 = load i32, ptr %14, align 8
  %17 = icmp eq i32 %16, 7
  %18 = load i32, ptr @usb_address_type, align 4
  %19 = icmp eq i32 %16, %18
  %or.cond = select i1 %17, i1 true, i1 %19
  br i1 %or.cond, label %20, label %22

20:                                               ; preds = %13
  %21 = tail call noalias ptr (ptr, ptr, ...) @wmem_strdup_printf(ptr noundef null, ptr noundef nonnull @.str.6, ptr noundef %15)
  tail call void @wmem_free(ptr noundef null, ptr noundef %15)
  br label %22

22:                                               ; preds = %13, %20
  %.019 = phi ptr [ %21, %20 ], [ %15, %13 ]
  %23 = icmp eq ptr %0, null
  br i1 %23, label %endpoint_get_filter_name.exit.thread, label %24

24:                                               ; preds = %22
  %25 = load ptr, ptr %0, align 8
  %26 = icmp eq ptr %25, null
  br i1 %26, label %endpoint_get_filter_name.exit, label %27

27:                                               ; preds = %24
  %28 = load ptr, ptr %25, align 8
  %29 = icmp eq ptr %28, null
  br i1 %29, label %endpoint_get_filter_name.exit, label %30

30:                                               ; preds = %27
  %31 = tail call ptr %28(ptr noundef nonnull %0, i32 noundef 2)
  br label %endpoint_get_filter_name.exit

endpoint_get_filter_name.exit:                    ; preds = %24, %27, %30
  %.0.i = phi ptr [ %31, %30 ], [ @.str.11, %27 ], [ @.str.11, %24 ]
  %.not = icmp eq ptr %.0, null
  br i1 %.not, label %endpoint_get_filter_name.exit23, label %32

endpoint_get_filter_name.exit.thread:             ; preds = %22
  %.not25 = icmp eq ptr %.0, null
  br i1 %.not25, label %endpoint_get_filter_name.exit23, label %.thread

.thread:                                          ; preds = %endpoint_get_filter_name.exit.thread
  br label %endpoint_get_filter_name.exit23

32:                                               ; preds = %endpoint_get_filter_name.exit
  %33 = load ptr, ptr %0, align 8
  %34 = icmp eq ptr %33, null
  br i1 %34, label %endpoint_get_filter_name.exit23, label %35

35:                                               ; preds = %32
  %36 = load ptr, ptr %33, align 8
  %37 = icmp eq ptr %36, null
  br i1 %37, label %endpoint_get_filter_name.exit23, label %38

38:                                               ; preds = %35
  %39 = tail call ptr %36(ptr noundef nonnull %0, i32 noundef 5)
  br label %endpoint_get_filter_name.exit23

endpoint_get_filter_name.exit23:                  ; preds = %38, %35, %32, %.thread, %endpoint_get_filter_name.exit.thread, %endpoint_get_filter_name.exit
  %.0.i27 = phi ptr [ %.0.i, %endpoint_get_filter_name.exit ], [ @.str.11, %endpoint_get_filter_name.exit.thread ], [ %.0.i, %38 ], [ %.0.i, %35 ], [ %.0.i, %32 ], [ @.str.11, %.thread ]
  %40 = phi ptr [ @.str.1, %endpoint_get_filter_name.exit ], [ @.str.1, %endpoint_get_filter_name.exit.thread ], [ %.0, %38 ], [ %.0, %35 ], [ %.0, %32 ], [ %.0, %.thread ]
  %41 = phi ptr [ @.str.1, %endpoint_get_filter_name.exit ], [ @.str.1, %endpoint_get_filter_name.exit.thread ], [ @.str.9, %38 ], [ @.str.9, %35 ], [ @.str.9, %32 ], [ @.str.9, %.thread ]
  %42 = phi ptr [ @.str.1, %endpoint_get_filter_name.exit ], [ @.str.1, %endpoint_get_filter_name.exit.thread ], [ @.str.8, %38 ], [ @.str.8, %35 ], [ @.str.8, %32 ], [ @.str.8, %.thread ]
  %43 = phi ptr [ @.str.1, %endpoint_get_filter_name.exit ], [ @.str.1, %endpoint_get_filter_name.exit.thread ], [ %39, %38 ], [ @.str.11, %35 ], [ @.str.11, %32 ], [ @.str.11, %.thread ]
  %44 = tail call noalias ptr (ptr, ptr, ...) @wmem_strdup_printf(ptr noundef null, ptr noundef nonnull @.str.10, ptr noundef %.0.i27, ptr noundef %.019, ptr noundef nonnull %42, ptr noundef %43, ptr noundef nonnull %41, ptr noundef nonnull %40)
  tail call void @g_free(ptr noundef %.0)
  tail call void @wmem_free(ptr noundef null, ptr noundef %.019)
  ret ptr %44
}